; Function Attrs: nounwind uwtable
define i32 @libdeflate_adler32(i32 noundef %0, ptr noundef %1, i64 noundef %2) local_unnamed_addr #0 {
  %4 = icmp eq ptr %1, null
  br i1 %4, label %8, label %5

5:                                                ; preds = %3
  %6 = load volatile ptr, ptr @adler32_impl, align 8, !tbaa !4
  %7 = tail call i32 %6(i32 noundef %0, ptr noundef nonnull %1, i64 noundef %2) #12
  br label %8

8:                                                ; preds = %3, %5
  %.0 = phi i32 [ %7, %5 ], [ 1, %3 ]
  ret i32 %.0
}